target datalayout = "e-m:e-p270:32:32-p271:32:32-p272:64:64-i64:64-i128:128-f80:128-n8:16:32:64-S128"
target triple = "x86_64-pc-linux-gnu"

%struct.epan_uat = type { ptr, i64, ptr, i8, ptr, i32, ptr, ptr, ptr, ptr, ptr, ptr, ptr, ptr, ptr, i32, ptr, ptr, ptr, i8, ptr, ptr, i8 }
%struct._GArray = type { ptr, i32 }

@.str = private unnamed_addr constant [1 x i8] zeroinitializer, align 1
@.str.1 = private unnamed_addr constant [11 x i8] c"epan/uat.c\00", align 1
@__func__.uat_update_record = private unnamed_addr constant [18 x i8] c"uat_update_record\00", align 1
@.str.2 = private unnamed_addr constant [31 x i8] c"assertion \22not reached\22 failed\00", align 1

; Function Attrs: null_pointer_is_valid sspstrong uwtable
define void @uat_update_record(ptr noundef %0, ptr noundef %1, i1 noundef zeroext %2) #0 {
  %4 = alloca ptr, align 8
  %5 = alloca ptr, align 8
  %6 = alloca i8, align 1
  %7 = alloca i32, align 4
  %8 = alloca ptr, align 8
  store ptr %0, ptr %4, align 8
  store ptr %1, ptr %5, align 8
  %9 = zext i1 %2 to i8
  store i8 %9, ptr %6, align 1
  call void @llvm.lifetime.start.p0(i64 4, ptr %7) #13
  call void @llvm.lifetime.start.p0(i64 8, ptr %8) #13
  store i32 0, ptr %7, align 4
  br label %10

10:                                               ; preds = %35, %3
  %11 = load i32, ptr %7, align 4
  %12 = load ptr, ptr %4, align 8
  %13 = getelementptr inbounds nuw %struct.epan_uat, ptr %12, i32 0, i32 17
  %14 = load ptr, ptr %13, align 8
  %15 = getelementptr inbounds nuw %struct._GArray, ptr %14, i32 0, i32 1
  %16 = load i32, ptr %15, align 8
  %17 = icmp ult i32 %11, %16
  br i1 %17, label %18, label %38

18:                                               ; preds = %10
  %19 = load ptr, ptr %4, align 8
  %20 = getelementptr inbounds nuw %struct.epan_uat, ptr %19, i32 0, i32 17
  %21 = load ptr, ptr %20, align 8
  %22 = getelementptr inbounds nuw %struct._GArray, ptr %21, i32 0, i32 0
  %23 = load ptr, ptr %22, align 8
  %24 = load ptr, ptr %4, align 8
  %25 = getelementptr inbounds nuw %struct.epan_uat, ptr %24, i32 0, i32 1
  %26 = load i64, ptr %25, align 8
  %27 = load i32, ptr %7, align 4
  %28 = zext i32 %27 to i64
  %29 = mul i64 %26, %28
  %30 = getelementptr i8, ptr %23, i64 %29
  %31 = load ptr, ptr %5, align 8
  %32 = icmp eq ptr %30, %31
  br i1 %32, label %33, label %34

33:                                               ; preds = %18
  br label %38

34:                                               ; preds = %18
  br label %35

35:                                               ; preds = %34
  %36 = load i32, ptr %7, align 4
  %37 = add i32 %36, 1
  store i32 %37, ptr %7, align 4
  br label %10, !llvm.loop !10

38:                                               ; preds = %33, %10
  %39 = load i32, ptr %7, align 4
  %40 = load ptr, ptr %4, align 8
  %41 = getelementptr inbounds nuw %struct.epan_uat, ptr %40, i32 0, i32 17
  %42 = load ptr, ptr %41, align 8
  %43 = getelementptr inbounds nuw %struct._GArray, ptr %42, i32 0, i32 1
  %44 = load i32, ptr %43, align 8
  %45 = icmp eq i32 %39, %44
  br i1 %45, label %46, label %47

46:                                               ; preds = %38
  call void (ptr, i32, ptr, i64, ptr, ptr, ...) @ws_log_fatal_full(ptr noundef @.str, i32 noundef 7, ptr noundef @.str.1, i64 noundef 157, ptr noundef @__func__.uat_update_record, ptr noundef @.str.2) #16
  unreachable

47:                                               ; preds = %38
  %48 = load ptr, ptr %4, align 8
  %49 = getelementptr inbounds nuw %struct.epan_uat, ptr %48, i32 0, i32 18
  %50 = load ptr, ptr %49, align 8
  %51 = getelementptr inbounds nuw %struct._GArray, ptr %50, i32 0, i32 0
  %52 = load ptr, ptr %51, align 8
  %53 = load i32, ptr %7, align 4
  %54 = zext i32 %53 to i64
  %55 = getelementptr i8, ptr %52, i64 %54
  store ptr %55, ptr %8, align 8
  %56 = load i8, ptr %6, align 1, !range !6, !noundef !7
  %57 = trunc i8 %56 to i1
  %58 = load ptr, ptr %8, align 8
  %59 = zext i1 %57 to i8
  store i8 %59, ptr %58, align 1
  call void @llvm.lifetime.end.p0(i64 8, ptr %8) #13
  call void @llvm.lifetime.end.p0(i64 4, ptr %7) #13
  ret void
}