; Function Attrs: null_pointer_is_valid sspstrong uwtable
define void @uat_update_record(ptr noundef readonly captures(none) %0, ptr noundef readnone captures(address) %1, i1 noundef zeroext %2) local_unnamed_addr #0 {
  %4 = getelementptr inbounds nuw i8, ptr %0, i64 136
  %5 = load ptr, ptr %4, align 8
  %6 = getelementptr inbounds nuw i8, ptr %5, i64 8
  %7 = load i32, ptr %6, align 8
  %.not = icmp eq i32 %7, 0
  br i1 %.not, label %._crit_edge, label %.lr.ph

.lr.ph:                                           ; preds = %3
  %8 = load ptr, ptr %5, align 8
  %9 = getelementptr inbounds nuw i8, ptr %0, i64 8
  %10 = load i64, ptr %9, align 8
  %wide.trip.count = zext i32 %7 to i64
  br label %11

11:                                               ; preds = %.lr.ph, %15
  %indvars.iv = phi i64 [ 0, %.lr.ph ], [ %indvars.iv.next, %15 ]
  %12 = mul i64 %10, %indvars.iv
  %13 = getelementptr i8, ptr %8, i64 %12
  %14 = icmp eq ptr %13, %1
  br i1 %14, label %._crit_edge.loopexit, label %15

15:                                               ; preds = %11
  %indvars.iv.next = add nuw nsw i64 %indvars.iv, 1
  %exitcond.not = icmp eq i64 %indvars.iv.next, %wide.trip.count
  br i1 %exitcond.not, label %._crit_edge.thread, label %11, !llvm.loop !8

._crit_edge.loopexit:                             ; preds = %11
  %16 = trunc nuw i64 %indvars.iv to i32
  br label %._crit_edge

._crit_edge:                                      ; preds = %._crit_edge.loopexit, %3
  %.0.lcssa = phi i32 [ 0, %3 ], [ %16, %._crit_edge.loopexit ]
  %17 = icmp eq i32 %.0.lcssa, %7
  br i1 %17, label %._crit_edge.thread, label %18

._crit_edge.thread:                               ; preds = %15, %._crit_edge
  tail call void (ptr, i32, ptr, i64, ptr, ptr, ...) @ws_log_fatal_full(ptr noundef nonnull @.str, i32 noundef 7, ptr noundef nonnull @.str.1, i64 noundef 157, ptr noundef nonnull @__func__.uat_update_record, ptr noundef nonnull @.str.2) #18
  unreachable

18:                                               ; preds = %._crit_edge
  %19 = zext i1 %2 to i8
  %20 = getelementptr inbounds nuw i8, ptr %0, i64 144
  %21 = load ptr, ptr %20, align 8
  %22 = load ptr, ptr %21, align 8
  %23 = zext i32 %.0.lcssa to i64
  %24 = getelementptr i8, ptr %22, i64 %23
  store i8 %19, ptr %24, align 1
  ret void
}